target datalayout = "e-m:e-p270:32:32-p271:32:32-p272:64:64-i64:64-i128:128-f80:128-n8:16:32:64-S128"
target triple = "x86_64-pc-linux-gnu"

%struct.sqlite3_vfs = type { i32, i32, i32, ptr, ptr, ptr, ptr, ptr, ptr, ptr, ptr, ptr, ptr, ptr, ptr, ptr, ptr, ptr, ptr, ptr, ptr, ptr }
%"struct.osgeo::proj::(anonymous namespace)::pj_sqlite3_customvfs_appdata" = type <{ ptr, i8, i8, [6 x i8] }>
%struct.sqlite3_file = type { ptr }
%struct.sqlite3_io_methods = type { i32, ptr, ptr, ptr, ptr, ptr, ptr, ptr, ptr, ptr, ptr, ptr, ptr, ptr, ptr, ptr, ptr, ptr, ptr }

; Function Attrs: mustprogress uwtable
define internal noundef i32 @_ZN5osgeo4projL13VFSCustomOpenEP11sqlite3_vfsPKcP12sqlite3_fileiPi(ptr noundef %0, ptr noundef %1, ptr noundef %2, i32 noundef %3, ptr noundef %4) #4 {
  %6 = alloca i32, align 4
  %7 = alloca ptr, align 8
  %8 = alloca ptr, align 8
  %9 = alloca ptr, align 8
  %10 = alloca i32, align 4
  %11 = alloca ptr, align 8
  %12 = alloca ptr, align 8
  %13 = alloca ptr, align 8
  %14 = alloca i32, align 4
  %15 = alloca ptr, align 8
  %16 = alloca ptr, align 8
  %17 = alloca i32, align 4
  store ptr %0, ptr %7, align 8, !tbaa !18
  store ptr %1, ptr %8, align 8, !tbaa !78
  store ptr %2, ptr %9, align 8, !tbaa !80
  store i32 %3, ptr %10, align 4, !tbaa !82
  store ptr %4, ptr %11, align 8, !tbaa !83
  call void @llvm.lifetime.start.p0(i64 8, ptr %12) #9
  %18 = load ptr, ptr %7, align 8, !tbaa !18
  %19 = getelementptr inbounds nuw %struct.sqlite3_vfs, ptr %18, i32 0, i32 5
  %20 = load ptr, ptr %19, align 8, !tbaa !85
  store ptr %20, ptr %12, align 8, !tbaa !35
  call void @llvm.lifetime.start.p0(i64 8, ptr %13) #9
  %21 = load ptr, ptr %12, align 8, !tbaa !35
  %22 = getelementptr inbounds nuw %"struct.osgeo::proj::(anonymous namespace)::pj_sqlite3_customvfs_appdata", ptr %21, i32 0, i32 0
  %23 = load ptr, ptr %22, align 8, !tbaa !42
  store ptr %23, ptr %13, align 8, !tbaa !18
  call void @llvm.lifetime.start.p0(i64 4, ptr %14) #9
  %24 = load ptr, ptr %13, align 8, !tbaa !18
  %25 = getelementptr inbounds nuw %struct.sqlite3_vfs, ptr %24, i32 0, i32 6
  %26 = load ptr, ptr %25, align 8, !tbaa !86
  %27 = load ptr, ptr %13, align 8, !tbaa !18
  %28 = load ptr, ptr %8, align 8, !tbaa !78
  %29 = load ptr, ptr %9, align 8, !tbaa !80
  %30 = load i32, ptr %10, align 4, !tbaa !82
  %31 = load ptr, ptr %11, align 8, !tbaa !83
  %32 = call noundef i32 %26(ptr noundef %27, ptr noundef %28, ptr noundef %29, i32 noundef %30, ptr noundef %31)
  store i32 %32, ptr %14, align 4, !tbaa !82
  %33 = load i32, ptr %14, align 4, !tbaa !82
  %34 = icmp eq i32 %33, 0
  br i1 %34, label %35, label %89

35:                                               ; preds = %5
  call void @llvm.lifetime.start.p0(i64 8, ptr %15) #9
  %36 = load ptr, ptr %9, align 8, !tbaa !80
  %37 = getelementptr inbounds nuw %struct.sqlite3_file, ptr %36, i32 0, i32 0
  %38 = load ptr, ptr %37, align 8, !tbaa !87
  %39 = getelementptr inbounds nuw %struct.sqlite3_io_methods, ptr %38, i32 0, i32 1
  %40 = load ptr, ptr %39, align 8, !tbaa !90
  store ptr %40, ptr %15, align 8, !tbaa !76
  call void @llvm.lifetime.start.p0(i64 8, ptr %16) #9
  %41 = call noalias ptr @malloc(i64 noundef 152) #21
  store ptr %41, ptr %16, align 8, !tbaa !92
  %42 = load ptr, ptr %16, align 8, !tbaa !92
  %43 = icmp ne ptr %42, null
  br i1 %43, label %52, label %44

44:                                               ; preds = %35
  %45 = load ptr, ptr %9, align 8, !tbaa !80
  %46 = getelementptr inbounds nuw %struct.sqlite3_file, ptr %45, i32 0, i32 0
  %47 = load ptr, ptr %46, align 8, !tbaa !87
  %48 = getelementptr inbounds nuw %struct.sqlite3_io_methods, ptr %47, i32 0, i32 1
  %49 = load ptr, ptr %48, align 8, !tbaa !90
  %50 = load ptr, ptr %9, align 8, !tbaa !80
  %51 = call noundef i32 %49(ptr noundef %50)
  store i32 7, ptr %6, align 4
  store i32 1, ptr %17, align 4
  br label %86

52:                                               ; preds = %35
  %53 = load ptr, ptr %16, align 8, !tbaa !92
  %54 = load ptr, ptr %9, align 8, !tbaa !80
  %55 = getelementptr inbounds nuw %struct.sqlite3_file, ptr %54, i32 0, i32 0
  %56 = load ptr, ptr %55, align 8, !tbaa !87
  call void @llvm.memcpy.p0.p0.i64(ptr align 8 %53, ptr align 8 %56, i64 152, i1 false)
  %57 = load ptr, ptr %16, align 8, !tbaa !92
  %58 = getelementptr inbounds nuw %struct.sqlite3_io_methods, ptr %57, i32 0, i32 1
  store ptr @_ZN5osgeo4projL8VFSCloseEP12sqlite3_file, ptr %58, align 8, !tbaa !90
  %59 = load ptr, ptr %12, align 8, !tbaa !35
  %60 = getelementptr inbounds nuw %"struct.osgeo::proj::(anonymous namespace)::pj_sqlite3_customvfs_appdata", ptr %59, i32 0, i32 1
  %61 = load i8, ptr %60, align 8, !tbaa !39, !range !37, !noundef !38
  %62 = trunc i8 %61 to i1
  br i1 %62, label %63, label %66

63:                                               ; preds = %52
  %64 = load ptr, ptr %16, align 8, !tbaa !92
  %65 = getelementptr inbounds nuw %struct.sqlite3_io_methods, ptr %64, i32 0, i32 5
  store ptr @_ZN5osgeo4projL21VSFNoOpLockUnlockSyncEP12sqlite3_filei, ptr %65, align 8, !tbaa !93
  br label %66

66:                                               ; preds = %63, %52
  %67 = load ptr, ptr %12, align 8, !tbaa !35
  %68 = getelementptr inbounds nuw %"struct.osgeo::proj::(anonymous namespace)::pj_sqlite3_customvfs_appdata", ptr %67, i32 0, i32 2
  %69 = load i8, ptr %68, align 1, !tbaa !41, !range !37, !noundef !38
  %70 = trunc i8 %69 to i1
  br i1 %70, label %71, label %76

71:                                               ; preds = %66
  %72 = load ptr, ptr %16, align 8, !tbaa !92
  %73 = getelementptr inbounds nuw %struct.sqlite3_io_methods, ptr %72, i32 0, i32 7
  store ptr @_ZN5osgeo4projL21VSFNoOpLockUnlockSyncEP12sqlite3_filei, ptr %73, align 8, !tbaa !94
  %74 = load ptr, ptr %16, align 8, !tbaa !92
  %75 = getelementptr inbounds nuw %struct.sqlite3_io_methods, ptr %74, i32 0, i32 8
  store ptr @_ZN5osgeo4projL21VSFNoOpLockUnlockSyncEP12sqlite3_filei, ptr %75, align 8, !tbaa !95
  br label %76

76:                                               ; preds = %71, %66
  %77 = load ptr, ptr %16, align 8, !tbaa !92
  %78 = load ptr, ptr %9, align 8, !tbaa !80
  %79 = getelementptr inbounds nuw %struct.sqlite3_file, ptr %78, i32 0, i32 0
  store ptr %77, ptr %79, align 8, !tbaa !87
  %80 = load ptr, ptr %9, align 8, !tbaa !80
  %81 = load ptr, ptr %13, align 8, !tbaa !18
  %82 = getelementptr inbounds nuw %struct.sqlite3_vfs, ptr %81, i32 0, i32 1
  %83 = load i32, ptr %82, align 4, !tbaa !30
  %84 = sext i32 %83 to i64
  %85 = getelementptr inbounds i8, ptr %80, i64 %84
  call void @llvm.memcpy.p0.p0.i64(ptr align 1 %85, ptr align 8 %15, i64 8, i1 false)
  store i32 0, ptr %17, align 4
  br label %86

86:                                               ; preds = %76, %44
  call void @llvm.lifetime.end.p0(i64 8, ptr %16) #9
  call void @llvm.lifetime.end.p0(i64 8, ptr %15) #9
  %87 = load i32, ptr %17, align 4
  switch i32 %87, label %91 [
    i32 0, label %88
  ]

88:                                               ; preds = %86
  br label %89

89:                                               ; preds = %88, %5
  %90 = load i32, ptr %14, align 4, !tbaa !82
  store i32 %90, ptr %6, align 4
  store i32 1, ptr %17, align 4
  br label %91

91:                                               ; preds = %89, %86
  call void @llvm.lifetime.end.p0(i64 4, ptr %14) #9
  call void @llvm.lifetime.end.p0(i64 8, ptr %13) #9
  call void @llvm.lifetime.end.p0(i64 8, ptr %12) #9
  %92 = load i32, ptr %6, align 4
  ret i32 %92
}