; Function Attrs: mustprogress uwtable
define internal noundef i32 @_ZN5osgeo4projL13VFSCustomOpenEP11sqlite3_vfsPKcP12sqlite3_fileiPi(ptr noundef readonly captures(none) %0, ptr noundef %1, ptr noundef %2, i32 noundef %3, ptr noundef %4) #7 {
  %6 = getelementptr inbounds nuw i8, ptr %0, i64 32
  %7 = load ptr, ptr %6, align 8, !tbaa !75
  %8 = load ptr, ptr %7, align 8, !tbaa !48
  %9 = getelementptr inbounds nuw i8, ptr %8, i64 40
  %10 = load ptr, ptr %9, align 8, !tbaa !76
  %11 = tail call noundef i32 %10(ptr noundef %8, ptr noundef %1, ptr noundef %2, i32 noundef %3, ptr noundef %4)
  %12 = icmp eq i32 %11, 0
  br i1 %12, label %13, label %38

13:                                               ; preds = %5
  %14 = load ptr, ptr %2, align 8, !tbaa !77
  %15 = getelementptr inbounds nuw i8, ptr %14, i64 8
  %16 = load ptr, ptr %15, align 8, !tbaa !80
  %17 = tail call noalias dereferenceable_or_null(152) ptr @malloc(i64 noundef 152) #27
  %.not.not = icmp eq ptr %17, null
  br i1 %.not.not, label %.thread, label %19

.thread:                                          ; preds = %13
  %18 = tail call noundef i32 %16(ptr noundef nonnull %2)
  br label %38

19:                                               ; preds = %13
  tail call void @llvm.memcpy.p0.p0.i64(ptr noundef nonnull align 8 dereferenceable(152) %17, ptr noundef nonnull align 8 dereferenceable(152) %14, i64 152, i1 false)
  %20 = getelementptr inbounds nuw i8, ptr %17, i64 8
  store ptr @_ZN5osgeo4projL8VFSCloseEP12sqlite3_file, ptr %20, align 8, !tbaa !80
  %21 = getelementptr inbounds nuw i8, ptr %7, i64 8
  %22 = load i8, ptr %21, align 8, !tbaa !44, !range !82, !noundef !83
  %23 = trunc nuw i8 %22 to i1
  br i1 %23, label %24, label %26

24:                                               ; preds = %19
  %25 = getelementptr inbounds nuw i8, ptr %17, i64 40
  store ptr @_ZN5osgeo4projL21VSFNoOpLockUnlockSyncEP12sqlite3_filei, ptr %25, align 8, !tbaa !84
  br label %26

26:                                               ; preds = %24, %19
  %27 = getelementptr inbounds nuw i8, ptr %7, i64 9
  %28 = load i8, ptr %27, align 1, !tbaa !47, !range !82, !noundef !83
  %29 = trunc nuw i8 %28 to i1
  br i1 %29, label %30, label %33

30:                                               ; preds = %26
  %31 = getelementptr inbounds nuw i8, ptr %17, i64 56
  store ptr @_ZN5osgeo4projL21VSFNoOpLockUnlockSyncEP12sqlite3_filei, ptr %31, align 8, !tbaa !85
  %32 = getelementptr inbounds nuw i8, ptr %17, i64 64
  store ptr @_ZN5osgeo4projL21VSFNoOpLockUnlockSyncEP12sqlite3_filei, ptr %32, align 8, !tbaa !86
  br label %33

33:                                               ; preds = %26, %30
  store ptr %17, ptr %2, align 8, !tbaa !77
  %34 = getelementptr inbounds nuw i8, ptr %8, i64 4
  %35 = load i32, ptr %34, align 4, !tbaa !39
  %36 = sext i32 %35 to i64
  %37 = getelementptr inbounds i8, ptr %2, i64 %36
  store ptr %16, ptr %37, align 1
  br label %38

38:                                               ; preds = %5, %33, %.thread
  %.1 = phi i32 [ 7, %.thread ], [ 0, %33 ], [ %11, %5 ]
  ret i32 %.1
}